; Function Attrs: mustprogress uwtable
define void @_ZN19GsmMapSummaryDialogC2ER7QWidgetR11CaptureFile(ptr noundef nonnull align 8 dereferenceable(144) %0, ptr noundef nonnull align 8 dereferenceable(40) %1, ptr noundef nonnull align 8 dereferenceable(48) %2) unnamed_addr #0 align 2 personality ptr @__gxx_personality_v0 {
  %4 = alloca %class.QString, align 8
  tail call void @_ZN15WiresharkDialogC2ER7QWidgetR11CaptureFile(ptr noundef nonnull align 8 dereferenceable(133) %0, ptr noundef nonnull align 8 dereferenceable(40) %1, ptr noundef nonnull align 8 dereferenceable(48) %2)
  store ptr getelementptr inbounds ({ [64 x ptr], [10 x ptr] }, ptr @_ZTV19GsmMapSummaryDialog, i64 0, i32 0, i64 2), ptr %0, align 8
  %5 = getelementptr inbounds i8, ptr %0, i64 16
  store ptr getelementptr inbounds ({ [64 x ptr], [10 x ptr] }, ptr @_ZTV19GsmMapSummaryDialog, i64 0, i32 1, i64 2), ptr %5, align 8
  %6 = invoke noalias noundef nonnull dereferenceable(24) ptr @_Znwm(i64 noundef 24) #13
          to label %7 unwind label %19

7:                                                ; preds = %3
  %8 = getelementptr inbounds i8, ptr %0, i64 136
  store ptr %6, ptr %8, align 8
  invoke void @_ZN22Ui_GsmMapSummaryDialog7setupUiEP7QDialog(ptr noundef nonnull align 8 dereferenceable(24) %6, ptr noundef nonnull %0)
          to label %9 unwind label %19

9:                                                ; preds = %7
  invoke void @_ZNK11QMetaObject2trEPKcS1_i(ptr dead_on_unwind nonnull writable sret(%class.QString) align 8 %4, ptr noundef nonnull align 8 dereferenceable(56) @_ZN19GsmMapSummaryDialog16staticMetaObjectE, ptr noundef nonnull @.str, ptr noundef null, i32 noundef -1)
          to label %_ZN19GsmMapSummaryDialog2trEPKcS1_i.exit unwind label %19

_ZN19GsmMapSummaryDialog2trEPKcS1_i.exit:         ; preds = %9
  invoke void @_ZN15WiresharkDialog17setWindowSubtitleERK7QString(ptr noundef nonnull align 8 dereferenceable(133) %0, ptr noundef nonnull align 8 dereferenceable(24) %4)
          to label %10 unwind label %21

10:                                               ; preds = %_ZN19GsmMapSummaryDialog2trEPKcS1_i.exit
  %11 = load ptr, ptr %4, align 8
  %.not.i.i.i = icmp eq ptr %11, null
  br i1 %.not.i.i.i, label %_ZN7QStringD2Ev.exit, label %_ZN17QArrayDataPointerIDsE5derefEv.exit.i.i

_ZN17QArrayDataPointerIDsE5derefEv.exit.i.i:      ; preds = %10
  %12 = atomicrmw sub ptr %11, i32 1 seq_cst, align 4
  %.not.i.i = icmp eq i32 %12, 1
  br i1 %.not.i.i, label %13, label %_ZN7QStringD2Ev.exit

13:                                               ; preds = %_ZN17QArrayDataPointerIDsE5derefEv.exit.i.i
  %14 = load ptr, ptr %4, align 8
  call void @_ZN10QArrayData10deallocateEPS_xx(ptr noundef %14, i64 noundef 2, i64 noundef 8) #14
  br label %_ZN7QStringD2Ev.exit

_ZN7QStringD2Ev.exit:                             ; preds = %10, %_ZN17QArrayDataPointerIDsE5derefEv.exit.i.i, %13
  %15 = load ptr, ptr %0, align 8
  %16 = getelementptr inbounds i8, ptr %15, i64 464
  %17 = load ptr, ptr %16, align 8
  invoke void %17(ptr noundef nonnull align 8 dereferenceable(144) %0)
          to label %18 unwind label %19

18:                                               ; preds = %_ZN7QStringD2Ev.exit
  ret void

19:                                               ; preds = %9, %_ZN7QStringD2Ev.exit, %7, %3
  %20 = landingpad { ptr, i32 }
          cleanup
  br label %_ZN7QStringD2Ev.exit9

21:                                               ; preds = %_ZN19GsmMapSummaryDialog2trEPKcS1_i.exit
  %22 = landingpad { ptr, i32 }
          cleanup
  %23 = load ptr, ptr %4, align 8
  %.not.i.i.i6 = icmp eq ptr %23, null
  br i1 %.not.i.i.i6, label %_ZN7QStringD2Ev.exit9, label %_ZN17QArrayDataPointerIDsE5derefEv.exit.i.i7

_ZN17QArrayDataPointerIDsE5derefEv.exit.i.i7:     ; preds = %21
  %24 = atomicrmw sub ptr %23, i32 1 seq_cst, align 4
  %.not.i.i8 = icmp eq i32 %24, 1
  br i1 %.not.i.i8, label %25, label %_ZN7QStringD2Ev.exit9

25:                                               ; preds = %_ZN17QArrayDataPointerIDsE5derefEv.exit.i.i7
  %26 = load ptr, ptr %4, align 8
  call void @_ZN10QArrayData10deallocateEPS_xx(ptr noundef %26, i64 noundef 2, i64 noundef 8) #14
  br label %_ZN7QStringD2Ev.exit9

_ZN7QStringD2Ev.exit9:                            ; preds = %25, %_ZN17QArrayDataPointerIDsE5derefEv.exit.i.i7, %21, %19
  %.pn = phi { ptr, i32 } [ %20, %19 ], [ %22, %21 ], [ %22, %_ZN17QArrayDataPointerIDsE5derefEv.exit.i.i7 ], [ %22, %25 ]
  call void @_ZN15WiresharkDialogD2Ev(ptr noundef nonnull align 8 dereferenceable(133) %0) #14
  resume { ptr, i32 } %.pn
}